target datalayout = "e-m:e-p270:32:32-p271:32:32-p272:64:64-i64:64-i128:128-f80:128-n8:16:32:64-S128"
target triple = "x86_64-pc-linux-gnu"

%struct.Abc_ZddMan_ = type { i32, i32, i32, i32, i32, i32, ptr, ptr, ptr, ptr, i32, i32, i64, ptr, ptr, ptr }

; Function Attrs: inlinehint nounwind uwtable
define internal void @Abc_ZddSetVarIJ(ptr noundef %0, i32 noundef %1, i32 noundef %2, i32 noundef %3) #2 {
  %5 = alloca ptr, align 8
  %6 = alloca i32, align 4
  %7 = alloca i32, align 4
  %8 = alloca i32, align 4
  store ptr %0, ptr %5, align 8, !tbaa !3
  store i32 %1, ptr %6, align 4, !tbaa !10
  store i32 %2, ptr %7, align 4, !tbaa !10
  store i32 %3, ptr %8, align 4, !tbaa !10
  %9 = load i32, ptr %8, align 4, !tbaa !10
  %10 = load ptr, ptr %5, align 8, !tbaa !3
  %11 = getelementptr inbounds nuw %struct.Abc_ZddMan_, ptr %10, i32 0, i32 15
  %12 = load ptr, ptr %11, align 8, !tbaa !41
  %13 = load i32, ptr %6, align 4, !tbaa !10
  %14 = load ptr, ptr %5, align 8, !tbaa !3
  %15 = getelementptr inbounds nuw %struct.Abc_ZddMan_, ptr %14, i32 0, i32 3
  %16 = load i32, ptr %15, align 4, !tbaa !38
  %17 = mul nsw i32 %13, %16
  %18 = load i32, ptr %7, align 4, !tbaa !10
  %19 = add nsw i32 %17, %18
  %20 = sext i32 %19 to i64
  %21 = getelementptr inbounds i32, ptr %12, i64 %20
  store i32 %9, ptr %21, align 4, !tbaa !10
  ret void
}

; Function Attrs: nounwind uwtable
define void @Abc_ZddManCreatePerms(ptr noundef %0, i32 noundef %1) #0 {
  %3 = alloca ptr, align 8
  %4 = alloca i32, align 4
  %5 = alloca i32, align 4
  %6 = alloca i32, align 4
  %7 = alloca i32, align 4
  store ptr %0, ptr %3, align 8, !tbaa !3
  store i32 %1, ptr %4, align 4, !tbaa !10
  call void @llvm.lifetime.start.p0(i64 4, ptr %5) #12
  call void @llvm.lifetime.start.p0(i64 4, ptr %6) #12
  call void @llvm.lifetime.start.p0(i64 4, ptr %7) #12
  store i32 0, ptr %7, align 4, !tbaa !10
  %8 = load i32, ptr %4, align 4, !tbaa !10
  %9 = load ptr, ptr %3, align 8, !tbaa !3
  %10 = getelementptr inbounds nuw %struct.Abc_ZddMan_, ptr %9, i32 0, i32 3
  store i32 %8, ptr %10, align 4, !tbaa !38
  %11 = load ptr, ptr %3, align 8, !tbaa !3
  %12 = getelementptr inbounds nuw %struct.Abc_ZddMan_, ptr %11, i32 0, i32 0
  %13 = load i32, ptr %12, align 8, !tbaa !32
  %14 = sext i32 %13 to i64
  %15 = mul i64 4, %14
  %16 = call noalias ptr @malloc(i64 noundef %15) #14
  %17 = load ptr, ptr %3, align 8, !tbaa !3
  %18 = getelementptr inbounds nuw %struct.Abc_ZddMan_, ptr %17, i32 0, i32 0
  %19 = load i32, ptr %18, align 8, !tbaa !32
  %20 = sext i32 %19 to i64
  %21 = mul i64 4, %20
  call void @llvm.memset.p0.i64(ptr align 1 %16, i8 -1, i64 %21, i1 false)
  %22 = load ptr, ptr %3, align 8, !tbaa !3
  %23 = getelementptr inbounds nuw %struct.Abc_ZddMan_, ptr %22, i32 0, i32 13
  store ptr %16, ptr %23, align 8, !tbaa !39
  %24 = load ptr, ptr %3, align 8, !tbaa !3
  %25 = getelementptr inbounds nuw %struct.Abc_ZddMan_, ptr %24, i32 0, i32 0
  %26 = load i32, ptr %25, align 8, !tbaa !32
  %27 = sext i32 %26 to i64
  %28 = mul i64 4, %27
  %29 = call noalias ptr @malloc(i64 noundef %28) #14
  %30 = load ptr, ptr %3, align 8, !tbaa !3
  %31 = getelementptr inbounds nuw %struct.Abc_ZddMan_, ptr %30, i32 0, i32 0
  %32 = load i32, ptr %31, align 8, !tbaa !32
  %33 = sext i32 %32 to i64
  %34 = mul i64 4, %33
  call void @llvm.memset.p0.i64(ptr align 1 %29, i8 -1, i64 %34, i1 false)
  %35 = load ptr, ptr %3, align 8, !tbaa !3
  %36 = getelementptr inbounds nuw %struct.Abc_ZddMan_, ptr %35, i32 0, i32 14
  store ptr %29, ptr %36, align 8, !tbaa !40
  %37 = load ptr, ptr %3, align 8, !tbaa !3
  %38 = getelementptr inbounds nuw %struct.Abc_ZddMan_, ptr %37, i32 0, i32 3
  %39 = load i32, ptr %38, align 4, !tbaa !38
  %40 = load ptr, ptr %3, align 8, !tbaa !3
  %41 = getelementptr inbounds nuw %struct.Abc_ZddMan_, ptr %40, i32 0, i32 3
  %42 = load i32, ptr %41, align 4, !tbaa !38
  %43 = mul nsw i32 %39, %42
  %44 = sext i32 %43 to i64
  %45 = mul i64 4, %44
  %46 = call noalias ptr @malloc(i64 noundef %45) #14
  %47 = load ptr, ptr %3, align 8, !tbaa !3
  %48 = getelementptr inbounds nuw %struct.Abc_ZddMan_, ptr %47, i32 0, i32 3
  %49 = load i32, ptr %48, align 4, !tbaa !38
  %50 = load ptr, ptr %3, align 8, !tbaa !3
  %51 = getelementptr inbounds nuw %struct.Abc_ZddMan_, ptr %50, i32 0, i32 3
  %52 = load i32, ptr %51, align 4, !tbaa !38
  %53 = mul nsw i32 %49, %52
  %54 = sext i32 %53 to i64
  %55 = mul i64 4, %54
  call void @llvm.memset.p0.i64(ptr align 1 %46, i8 -1, i64 %55, i1 false)
  %56 = load ptr, ptr %3, align 8, !tbaa !3
  %57 = getelementptr inbounds nuw %struct.Abc_ZddMan_, ptr %56, i32 0, i32 15
  store ptr %46, ptr %57, align 8, !tbaa !41
  store i32 0, ptr %5, align 4, !tbaa !10
  br label %58

58:                                               ; preds = %93, %2
  %59 = load i32, ptr %5, align 4, !tbaa !10
  %60 = load i32, ptr %4, align 4, !tbaa !10
  %61 = icmp slt i32 %59, %60
  br i1 %61, label %62, label %96

62:                                               ; preds = %58
  %63 = load i32, ptr %5, align 4, !tbaa !10
  %64 = add nsw i32 %63, 1
  store i32 %64, ptr %6, align 4, !tbaa !10
  br label %65

65:                                               ; preds = %89, %62
  %66 = load i32, ptr %6, align 4, !tbaa !10
  %67 = load i32, ptr %4, align 4, !tbaa !10
  %68 = icmp slt i32 %66, %67
  br i1 %68, label %69, label %92

69:                                               ; preds = %65
  %70 = load i32, ptr %5, align 4, !tbaa !10
  %71 = load ptr, ptr %3, align 8, !tbaa !3
  %72 = getelementptr inbounds nuw %struct.Abc_ZddMan_, ptr %71, i32 0, i32 13
  %73 = load ptr, ptr %72, align 8, !tbaa !39
  %74 = load i32, ptr %7, align 4, !tbaa !10
  %75 = sext i32 %74 to i64
  %76 = getelementptr inbounds i32, ptr %73, i64 %75
  store i32 %70, ptr %76, align 4, !tbaa !10
  %77 = load i32, ptr %6, align 4, !tbaa !10
  %78 = load ptr, ptr %3, align 8, !tbaa !3
  %79 = getelementptr inbounds nuw %struct.Abc_ZddMan_, ptr %78, i32 0, i32 14
  %80 = load ptr, ptr %79, align 8, !tbaa !40
  %81 = load i32, ptr %7, align 4, !tbaa !10
  %82 = sext i32 %81 to i64
  %83 = getelementptr inbounds i32, ptr %80, i64 %82
  store i32 %77, ptr %83, align 4, !tbaa !10
  %84 = load ptr, ptr %3, align 8, !tbaa !3
  %85 = load i32, ptr %5, align 4, !tbaa !10
  %86 = load i32, ptr %6, align 4, !tbaa !10
  %87 = load i32, ptr %7, align 4, !tbaa !10
  %88 = add nsw i32 %87, 1
  store i32 %88, ptr %7, align 4, !tbaa !10
  call void @Abc_ZddSetVarIJ(ptr noundef %84, i32 noundef %85, i32 noundef %86, i32 noundef %87)
  br label %89

89:                                               ; preds = %69
  %90 = load i32, ptr %6, align 4, !tbaa !10
  %91 = add nsw i32 %90, 1
  store i32 %91, ptr %6, align 4, !tbaa !10
  br label %65, !llvm.loop !42

92:                                               ; preds = %65
  br label %93

93:                                               ; preds = %92
  %94 = load i32, ptr %5, align 4, !tbaa !10
  %95 = add nsw i32 %94, 1
  store i32 %95, ptr %5, align 4, !tbaa !10
  br label %58, !llvm.loop !43

96:                                               ; preds = %58
  call void @llvm.lifetime.end.p0(i64 4, ptr %7) #12
  call void @llvm.lifetime.end.p0(i64 4, ptr %6) #12
  call void @llvm.lifetime.end.p0(i64 4, ptr %5) #12
  ret void
}

; Function Attrs: nounwind uwtable
define void @Abc_ZddPermTest() #0 {
  %1 = alloca ptr, align 8
  call void @llvm.lifetime.start.p0(i64 8, ptr %1) #12
  %2 = call ptr @Abc_ZddManAlloc(i32 noundef 10, i32 noundef 1048576)
  store ptr %2, ptr %1, align 8, !tbaa !3
  %3 = load ptr, ptr %1, align 8, !tbaa !3
  call void @Abc_ZddManCreatePerms(ptr noundef %3, i32 noundef 5)
  %4 = load ptr, ptr %1, align 8, !tbaa !3
  call void @Abc_ZddPermTestInt(ptr noundef %4)
  %5 = load ptr, ptr %1, align 8, !tbaa !3
  call void @Abc_ZddManFree(ptr noundef %5)
  call void @llvm.lifetime.end.p0(i64 8, ptr %1) #12
  ret void
}