; Function Attrs: nounwind uwtable
define void @Abc_ZddPermTest() local_unnamed_addr #7 {
  %1 = tail call ptr @Abc_ZddManAlloc(i32 noundef 10, i32 noundef 1048576)
  %2 = getelementptr inbounds nuw i8, ptr %1, i64 12
  store i32 5, ptr %2, align 4, !tbaa !34
  %3 = load i32, ptr %1, align 8, !tbaa !29
  %4 = sext i32 %3 to i64
  %5 = shl nsw i64 %4, 2
  %6 = tail call noalias ptr @malloc(i64 noundef %5) #22
  tail call void @llvm.memset.p0.i64(ptr align 1 %6, i8 -1, i64 %5, i1 false)
  %7 = getelementptr inbounds nuw i8, ptr %1, i64 72
  store ptr %6, ptr %7, align 8, !tbaa !35
  %8 = tail call noalias ptr @malloc(i64 noundef %5) #22
  tail call void @llvm.memset.p0.i64(ptr align 1 %8, i8 -1, i64 %5, i1 false)
  %9 = getelementptr inbounds nuw i8, ptr %1, i64 80
  store ptr %8, ptr %9, align 8, !tbaa !36
  %10 = tail call noalias dereferenceable_or_null(100) ptr @malloc(i64 noundef 100) #22
  tail call void @llvm.memset.p0.i64(ptr noundef nonnull align 1 dereferenceable(100) %10, i8 -1, i64 100, i1 false)
  %11 = getelementptr inbounds nuw i8, ptr %1, i64 88
  store ptr %10, ptr %11, align 8, !tbaa !37
  br label %.lr.ph37.i

.loopexit.loopexit.i:                             ; preds = %16
  %12 = trunc nsw i64 %indvars.iv.next.i to i32
  br label %.loopexit.i

.loopexit.i:                                      ; preds = %.lr.ph37.i, %.loopexit.loopexit.i
  %.1.lcssa.i = phi i32 [ %.036.i, %.lr.ph37.i ], [ %12, %.loopexit.loopexit.i ]
  %indvars.iv.next39.i = add nuw nsw i64 %indvars.iv38.i, 1
  %exitcond45.not.i = icmp eq i64 %indvars.iv.next, 5
  br i1 %exitcond45.not.i, label %Abc_ZddManCreatePerms.exit, label %.lr.ph37.i, !llvm.loop !38

.lr.ph37.i:                                       ; preds = %.loopexit.i, %0
  %indvars.iv = phi i64 [ %indvars.iv.next, %.loopexit.i ], [ 0, %0 ]
  %indvars.iv38.i = phi i64 [ %indvars.iv.next39.i, %.loopexit.i ], [ 1, %0 ]
  %.036.i = phi i32 [ %.1.lcssa.i, %.loopexit.i ], [ 0, %0 ]
  %indvars.iv.next = add nuw nsw i64 %indvars.iv, 1
  %13 = icmp samesign ult i64 %indvars.iv, 4
  br i1 %13, label %.lr.ph.i, label %.loopexit.i

.lr.ph.i:                                         ; preds = %.lr.ph37.i
  %14 = sext i32 %.036.i to i64
  %invariant.gep.i.idx = mul nuw nsw i64 %indvars.iv, 20
  %invariant.gep.i = getelementptr inbounds nuw i8, ptr %10, i64 %invariant.gep.i.idx
  %15 = trunc nuw nsw i64 %indvars.iv to i32
  br label %16

16:                                               ; preds = %16, %.lr.ph.i
  %indvars.iv40.i = phi i64 [ %indvars.iv38.i, %.lr.ph.i ], [ %indvars.iv.next41.i, %16 ]
  %indvars.iv.i = phi i64 [ %14, %.lr.ph.i ], [ %indvars.iv.next.i, %16 ]
  %17 = getelementptr inbounds i32, ptr %6, i64 %indvars.iv.i
  store i32 %15, ptr %17, align 4, !tbaa !3
  %18 = getelementptr inbounds i32, ptr %8, i64 %indvars.iv.i
  %19 = trunc nuw nsw i64 %indvars.iv40.i to i32
  store i32 %19, ptr %18, align 4, !tbaa !3
  %indvars.iv.next.i = add nsw i64 %indvars.iv.i, 1
  %gep.i = getelementptr inbounds nuw i32, ptr %invariant.gep.i, i64 %indvars.iv40.i
  %20 = trunc nsw i64 %indvars.iv.i to i32
  store i32 %20, ptr %gep.i, align 4, !tbaa !3
  %indvars.iv.next41.i = add nuw nsw i64 %indvars.iv40.i, 1
  %exitcond.not.i = icmp eq i64 %indvars.iv.next41.i, 5
  br i1 %exitcond.not.i, label %.loopexit.loopexit.i, label %16, !llvm.loop !39

Abc_ZddManCreatePerms.exit:                       ; preds = %.loopexit.i
  tail call void @Abc_ZddPermTestInt(ptr noundef nonnull %1)
  tail call void @Abc_ZddManFree(ptr noundef nonnull %1)
  ret void
}